	.file	"hello.c"
	.section	.rodata
.LC0:
	.string	"c is even"
.LC1:
	.string	"c is odd"
	.text
	.globl	main
	.type	main, @function
main:
.LFB0:
	.cfi_startproc
	pushq	%rbp
	.cfi_def_cfa_offset 16
	.cfi_offset 6, -16
	movq	%rsp, %rbp
	.cfi_def_cfa_register 6
	subq	$16, %rsp
	movl	$3, -16(%rbp)
	movl	$4, -12(%rbp)
	movl	-16(%rbp), %edx
	movl	-12(%rbp), %eax
	addl	%edx, %eax
	movl	%eax, -8(%rbp)
	movl	-8(%rbp), %eax
	cltd
	shrl	$31, %edx
	addl	%edx, %eax
	andl	$1, %eax
	subl	%edx, %eax
	movl	%eax, -4(%rbp)
	movl	-4(%rbp), %eax
	testl	%eax, %eax
	je	.L3
	cmpl	$1, %eax
	je	.L4
	jmp	.L2
.L3:
	movl	$.LC0, %edi
	call	puts
.L4:
	movl	$.LC1, %edi
	call	puts
.L2:
	movl	$0, %eax
	leave
	.cfi_def_cfa 7, 8
	ret
	.cfi_endproc
.LFE0:
	.size	main, .-main
	.section	.rodata
.LC2:
	.string	"%s has been swerved."
	.text
	.globl	swerve
	.type	swerve, @function
swerve:
.LFB1:
	.cfi_startproc
	pushq	%rbp
	.cfi_def_cfa_offset 16
	.cfi_offset 6, -16
	movq	%rsp, %rbp
	.cfi_def_cfa_register 6
	subq	$16, %rsp
	movq	%rdi, -8(%rbp)
	movq	-8(%rbp), %rax
	movq	%rax, %rsi
	movl	$.LC2, %edi
	movl	$0, %eax
	call	printf
	nop
	leave
	.cfi_def_cfa 7, 8
	ret
	.cfi_endproc
.LFE1:
	.size	swerve, .-swerve
	.ident	"GCC: (Ubuntu 5.4.0-6ubuntu1~16.04.12) 5.4.0 20160609"
	.section	.note.GNU-stack,"",@progbits
